; ModuleID = '47/88.c'
source_filename = "47/88.c"
target datalayout = "e-m:e-p270:32:32-p271:32:32-p272:64:64-i64:64-f80:128-n8:16:32:64-S128"
target triple = "x86_64-pc-linux-gnu"

@.str = private unnamed_addr constant [4 x i8] c"%d\0A\00", align 1
@.str.1 = private unnamed_addr constant [3 x i8] c"%d\00", align 1
@.str.2 = private unnamed_addr constant [4 x i8] c"%d \00", align 1

; Function Attrs: noinline nounwind uwtable
define dso_local void @main() #0 {
  %1 = alloca i32, align 4
  %2 = alloca i32, align 4
  %3 = alloca i32, align 4
  %4 = alloca i32, align 4
  %5 = alloca i32, align 4
  %6 = alloca i32, align 4
  %7 = alloca [100 x i32], align 16
  %8 = call i32 (i8*, ...) @__isoc99_scanf(i8* getelementptr inbounds ([4 x i8], [4 x i8]* @.str, i64 0, i64 0), i32* %4)
  store i32 0, i32* %1, align 4
  br label %9

9:                                                ; preds = %19, %0
  %10 = load i32, i32* %1, align 4
  %11 = load i32, i32* %4, align 4
  %12 = icmp slt i32 %10, %11
  br i1 %12, label %13, label %22

13:                                               ; preds = %9
  %14 = call i32 (i8*, ...) @__isoc99_scanf(i8* getelementptr inbounds ([3 x i8], [3 x i8]* @.str.1, i64 0, i64 0), i32* %5)
  %15 = load i32, i32* %5, align 4
  %16 = load i32, i32* %1, align 4
  %17 = sext i32 %16 to i64
  %18 = getelementptr inbounds [100 x i32], [100 x i32]* %7, i64 0, i64 %17
  store i32 %15, i32* %18, align 4
  br label %19

19:                                               ; preds = %13
  %20 = load i32, i32* %1, align 4
  %21 = add nsw i32 %20, 1
  store i32 %21, i32* %1, align 4
  br label %9

22:                                               ; preds = %9
  store i32 0, i32* %2, align 4
  br label %23

23:                                               ; preds = %51, %22
  %24 = load i32, i32* %2, align 4
  %25 = load i32, i32* %4, align 4
  %26 = add nsw i32 %25, 1
  %27 = sdiv i32 %26, 2
  %28 = icmp slt i32 %24, %27
  br i1 %28, label %29, label %54

29:                                               ; preds = %23
  %30 = load i32, i32* %2, align 4
  %31 = sext i32 %30 to i64
  %32 = getelementptr inbounds [100 x i32], [100 x i32]* %7, i64 0, i64 %31
  %33 = load i32, i32* %32, align 4
  store i32 %33, i32* %6, align 4
  %34 = load i32, i32* %4, align 4
  %35 = load i32, i32* %2, align 4
  %36 = sub nsw i32 %34, %35
  %37 = sub nsw i32 %36, 1
  %38 = sext i32 %37 to i64
  %39 = getelementptr inbounds [100 x i32], [100 x i32]* %7, i64 0, i64 %38
  %40 = load i32, i32* %39, align 4
  %41 = load i32, i32* %2, align 4
  %42 = sext i32 %41 to i64
  %43 = getelementptr inbounds [100 x i32], [100 x i32]* %7, i64 0, i64 %42
  store i32 %40, i32* %43, align 4
  %44 = load i32, i32* %6, align 4
  %45 = load i32, i32* %4, align 4
  %46 = load i32, i32* %2, align 4
  %47 = sub nsw i32 %45, %46
  %48 = sub nsw i32 %47, 1
  %49 = sext i32 %48 to i64
  %50 = getelementptr inbounds [100 x i32], [100 x i32]* %7, i64 0, i64 %49
  store i32 %44, i32* %50, align 4
  br label %51

51:                                               ; preds = %29
  %52 = load i32, i32* %2, align 4
  %53 = add nsw i32 %52, 1
  store i32 %53, i32* %2, align 4
  br label %23

54:                                               ; preds = %23
  store i32 0, i32* %3, align 4
  br label %55

55:                                               ; preds = %66, %54
  %56 = load i32, i32* %3, align 4
  %57 = load i32, i32* %4, align 4
  %58 = sub nsw i32 %57, 1
  %59 = icmp slt i32 %56, %58
  br i1 %59, label %60, label %69

60:                                               ; preds = %55
  %61 = load i32, i32* %3, align 4
  %62 = sext i32 %61 to i64
  %63 = getelementptr inbounds [100 x i32], [100 x i32]* %7, i64 0, i64 %62
  %64 = load i32, i32* %63, align 4
  %65 = call i32 (i8*, ...) @printf(i8* getelementptr inbounds ([4 x i8], [4 x i8]* @.str.2, i64 0, i64 0), i32 %64)
  br label %66

66:                                               ; preds = %60
  %67 = load i32, i32* %3, align 4
  %68 = add nsw i32 %67, 1
  store i32 %68, i32* %3, align 4
  br label %55

69:                                               ; preds = %55
  %70 = load i32, i32* %4, align 4
  %71 = sub nsw i32 %70, 1
  %72 = sext i32 %71 to i64
  %73 = getelementptr inbounds [100 x i32], [100 x i32]* %7, i64 0, i64 %72
  %74 = load i32, i32* %73, align 4
  %75 = call i32 (i8*, ...) @printf(i8* getelementptr inbounds ([3 x i8], [3 x i8]* @.str.1, i64 0, i64 0), i32 %74)
  ret void
}

declare dso_local i32 @__isoc99_scanf(i8*, ...) #1

declare dso_local i32 @printf(i8*, ...) #1


!llvm.module.flags = !{!0}
!llvm.ident = !{!1}

!0 = !{i32 1, !"wchar_size", i32 4}
!1 = !{!"clang version 10.0.0-4ubuntu1 "}
