; ModuleID = 'source-C-CXX/46/88.c'
source_filename = "source-C-CXX/46/88.c"
target datalayout = "e-m:e-p270:32:32-p271:32:32-p272:64:64-i64:64-f80:128-n8:16:32:64-S128"
target triple = "x86_64-pc-linux-gnu"

@.str = private unnamed_addr constant [4 x i8] c"%d\0A\00", align 1
@.str.1 = private unnamed_addr constant [3 x i8] c"%d\00", align 1
@.str.2 = private unnamed_addr constant [4 x i8] c"%d \00", align 1

; Function Attrs: nofree nounwind sspstrong uwtable
define dso_local void @main() local_unnamed_addr #0 {
  %1 = alloca i32, align 4
  %2 = alloca i32, align 4
  %3 = alloca [100 x i32], align 16
  %4 = bitcast i32* %1 to i8*
  call void @llvm.lifetime.start.p0i8(i64 4, i8* nonnull %4) #3
  %5 = bitcast i32* %2 to i8*
  call void @llvm.lifetime.start.p0i8(i64 4, i8* nonnull %5) #3
  %6 = bitcast [100 x i32]* %3 to i8*
  call void @llvm.lifetime.start.p0i8(i64 400, i8* nonnull %6) #3
  %7 = call i32 (i8*, ...) @__isoc99_scanf(i8* getelementptr inbounds ([4 x i8], [4 x i8]* @.str, i64 0, i64 0), i32* nonnull %1)
  %8 = load i32, i32* %1, align 4, !tbaa !5
  %9 = icmp sgt i32 %8, 0
  br i1 %9, label %20, label %43

10:                                               ; preds = %20
  %11 = icmp sgt i32 %26, 0
  br i1 %11, label %12, label %43

12:                                               ; preds = %10
  %13 = add nuw nsw i32 %26, 1
  %14 = lshr i32 %13, 1
  %15 = zext i32 %14 to i64
  %16 = and i64 %15, 1
  %17 = icmp eq i32 %14, 1
  br i1 %17, label %29, label %18

18:                                               ; preds = %12
  %19 = and i64 %15, 2147483646
  br label %47

20:                                               ; preds = %0, %20
  %21 = phi i64 [ %25, %20 ], [ 0, %0 ]
  %22 = call i32 (i8*, ...) @__isoc99_scanf(i8* getelementptr inbounds ([3 x i8], [3 x i8]* @.str.1, i64 0, i64 0), i32* nonnull %2)
  %23 = load i32, i32* %2, align 4, !tbaa !5
  %24 = getelementptr inbounds [100 x i32], [100 x i32]* %3, i64 0, i64 %21
  store i32 %23, i32* %24, align 4, !tbaa !5
  %25 = add nuw nsw i64 %21, 1
  %26 = load i32, i32* %1, align 4, !tbaa !5
  %27 = sext i32 %26 to i64
  %28 = icmp slt i64 %25, %27
  br i1 %28, label %20, label %10, !llvm.loop !9

29:                                               ; preds = %47, %12
  %30 = phi i64 [ 0, %12 ], [ %67, %47 ]
  %31 = icmp eq i64 %16, 0
  br i1 %31, label %41, label %32

32:                                               ; preds = %29
  %33 = getelementptr inbounds [100 x i32], [100 x i32]* %3, i64 0, i64 %30
  %34 = load i32, i32* %33, align 4, !tbaa !5
  %35 = trunc i64 %30 to i32
  %36 = xor i32 %35, -1
  %37 = add i32 %26, %36
  %38 = sext i32 %37 to i64
  %39 = getelementptr inbounds [100 x i32], [100 x i32]* %3, i64 0, i64 %38
  %40 = load i32, i32* %39, align 4, !tbaa !5
  store i32 %40, i32* %33, align 4, !tbaa !5
  store i32 %34, i32* %39, align 4, !tbaa !5
  br label %41

41:                                               ; preds = %29, %32
  %42 = icmp sgt i32 %26, 1
  br i1 %42, label %70, label %43

43:                                               ; preds = %0, %10, %41
  %44 = phi i32 [ %26, %41 ], [ %26, %10 ], [ %8, %0 ]
  %45 = add nsw i32 %44, -1
  %46 = sext i32 %45 to i64
  br label %80

47:                                               ; preds = %47, %18
  %48 = phi i64 [ 0, %18 ], [ %67, %47 ]
  %49 = phi i64 [ %19, %18 ], [ %68, %47 ]
  %50 = getelementptr inbounds [100 x i32], [100 x i32]* %3, i64 0, i64 %48
  %51 = load i32, i32* %50, align 8, !tbaa !5
  %52 = trunc i64 %48 to i32
  %53 = xor i32 %52, -1
  %54 = add i32 %26, %53
  %55 = sext i32 %54 to i64
  %56 = getelementptr inbounds [100 x i32], [100 x i32]* %3, i64 0, i64 %55
  %57 = load i32, i32* %56, align 4, !tbaa !5
  store i32 %57, i32* %50, align 8, !tbaa !5
  store i32 %51, i32* %56, align 4, !tbaa !5
  %58 = or i64 %48, 1
  %59 = getelementptr inbounds [100 x i32], [100 x i32]* %3, i64 0, i64 %58
  %60 = load i32, i32* %59, align 4, !tbaa !5
  %61 = trunc i64 %58 to i32
  %62 = xor i32 %61, -1
  %63 = add i32 %26, %62
  %64 = sext i32 %63 to i64
  %65 = getelementptr inbounds [100 x i32], [100 x i32]* %3, i64 0, i64 %64
  %66 = load i32, i32* %65, align 4, !tbaa !5
  store i32 %66, i32* %59, align 4, !tbaa !5
  store i32 %60, i32* %65, align 4, !tbaa !5
  %67 = add nuw nsw i64 %48, 2
  %68 = add i64 %49, -2
  %69 = icmp eq i64 %68, 0
  br i1 %69, label %29, label %47, !llvm.loop !11

70:                                               ; preds = %41, %70
  %71 = phi i64 [ %75, %70 ], [ 0, %41 ]
  %72 = getelementptr inbounds [100 x i32], [100 x i32]* %3, i64 0, i64 %71
  %73 = load i32, i32* %72, align 4, !tbaa !5
  %74 = call i32 (i8*, ...) @printf(i8* nonnull dereferenceable(1) getelementptr inbounds ([4 x i8], [4 x i8]* @.str.2, i64 0, i64 0), i32 %73)
  %75 = add nuw nsw i64 %71, 1
  %76 = load i32, i32* %1, align 4, !tbaa !5
  %77 = add nsw i32 %76, -1
  %78 = sext i32 %77 to i64
  %79 = icmp slt i64 %75, %78
  br i1 %79, label %70, label %80, !llvm.loop !12

80:                                               ; preds = %70, %43
  %81 = phi i64 [ %46, %43 ], [ %78, %70 ]
  %82 = getelementptr inbounds [100 x i32], [100 x i32]* %3, i64 0, i64 %81
  %83 = load i32, i32* %82, align 4, !tbaa !5
  %84 = call i32 (i8*, ...) @printf(i8* nonnull dereferenceable(1) getelementptr inbounds ([3 x i8], [3 x i8]* @.str.1, i64 0, i64 0), i32 %83)
  call void @llvm.lifetime.end.p0i8(i64 400, i8* nonnull %6) #3
  call void @llvm.lifetime.end.p0i8(i64 4, i8* nonnull %5) #3
  call void @llvm.lifetime.end.p0i8(i64 4, i8* nonnull %4) #3
  ret void
}

; Function Attrs: argmemonly mustprogress nofree nosync nounwind willreturn
declare void @llvm.lifetime.start.p0i8(i64 immarg, i8* nocapture) #1

; Function Attrs: nofree nounwind
declare noundef i32 @__isoc99_scanf(i8* nocapture noundef readonly, ...) local_unnamed_addr #2

; Function Attrs: nofree nounwind
declare noundef i32 @printf(i8* nocapture noundef readonly, ...) local_unnamed_addr #2

; Function Attrs: argmemonly mustprogress nofree nosync nounwind willreturn
declare void @llvm.lifetime.end.p0i8(i64 immarg, i8* nocapture) #1


!llvm.module.flags = !{!0, !1, !2, !3}
!llvm.ident = !{!4}

!0 = !{i32 1, !"wchar_size", i32 4}
!1 = !{i32 7, !"PIC Level", i32 2}
!2 = !{i32 7, !"PIE Level", i32 2}
!3 = !{i32 7, !"uwtable", i32 1}
!4 = !{!"clang version 13.0.0"}
!5 = !{!6, !6, i64 0}
!6 = !{!"int", !7, i64 0}
!7 = !{!"omnipotent char", !8, i64 0}
!8 = !{!"Simple C/C++ TBAA"}
!9 = distinct !{!9, !10}
!10 = !{!"llvm.loop.mustprogress"}
!11 = distinct !{!11, !10}
!12 = distinct !{!12, !10}
